target datalayout = "e-m:e-p270:32:32-p271:32:32-p272:64:64-i64:64-i128:128-f80:128-n8:16:32:64-S128"
target triple = "x86_64-pc-linux-gnu"

%struct.Aig_Man_t_ = type { ptr, ptr, ptr, ptr, ptr, ptr, ptr, %struct.Aig_Obj_t_, i32, i32, i32, i32, i32, i32, [7 x i32], i32, ptr, i32, ptr, i32, ptr, i32, i32, i32, ptr, i32, i32, i32, i32, i32, ptr, ptr, i32, ptr, ptr, i32, ptr, ptr, i32, i32, i32, ptr, ptr, ptr, ptr, ptr, ptr, ptr, ptr, ptr, ptr, ptr, ptr, ptr, ptr, i32, ptr, ptr, ptr, ptr, i32, i64, i64, i64, ptr, ptr }
%struct.Aig_Obj_t_ = type { %union.anon, ptr, ptr, i64, i32, i32, %union.anon.0 }
%union.anon = type { ptr }
%union.anon.0 = type { ptr }
%struct.Cnf_Dat_t_ = type { ptr, i32, i32, i32, ptr, ptr, ptr, ptr, ptr, ptr }
%struct.Vec_Ptr_t_ = type { i32, i32, ptr }

; Function Attrs: inlinehint nounwind uwtable
define internal i32 @Vec_PtrSize(ptr noundef %0) #5 {
  %2 = alloca ptr, align 8
  store ptr %0, ptr %2, align 8, !tbaa !50
  %3 = load ptr, ptr %2, align 8, !tbaa !50
  %4 = getelementptr inbounds nuw %struct.Vec_Ptr_t_, ptr %3, i32 0, i32 1
  %5 = load i32, ptr %4, align 4, !tbaa !51
  ret i32 %5
}

; Function Attrs: inlinehint nounwind uwtable
define internal i32 @Aig_ManObjNumMax(ptr noundef %0) #5 {
  %2 = alloca ptr, align 8
  store ptr %0, ptr %2, align 8, !tbaa !34
  %3 = load ptr, ptr %2, align 8, !tbaa !34
  %4 = getelementptr inbounds nuw %struct.Aig_Man_t_, ptr %3, i32 0, i32 4
  %5 = load ptr, ptr %4, align 8, !tbaa !60
  %6 = call i32 @Vec_PtrSize(ptr noundef %5)
  ret i32 %6
}

; Function Attrs: nounwind uwtable
define ptr @Cnf_DataAlloc(ptr noundef %0, i32 noundef %1, i32 noundef %2, i32 noundef %3) #0 {
  %5 = alloca ptr, align 8
  %6 = alloca i32, align 4
  %7 = alloca i32, align 4
  %8 = alloca i32, align 4
  %9 = alloca ptr, align 8
  store ptr %0, ptr %5, align 8, !tbaa !34
  store i32 %1, ptr %6, align 4, !tbaa !20
  store i32 %2, ptr %7, align 4, !tbaa !20
  store i32 %3, ptr %8, align 4, !tbaa !20
  call void @llvm.lifetime.start.p0(i64 8, ptr %9) #11
  %10 = call noalias ptr @calloc(i64 noundef 1, i64 noundef 72) #13
  store ptr %10, ptr %9, align 8, !tbaa !32
  %11 = load ptr, ptr %5, align 8, !tbaa !34
  %12 = load ptr, ptr %9, align 8, !tbaa !32
  %13 = getelementptr inbounds nuw %struct.Cnf_Dat_t_, ptr %12, i32 0, i32 0
  store ptr %11, ptr %13, align 8, !tbaa !55
  %14 = load i32, ptr %6, align 4, !tbaa !20
  %15 = load ptr, ptr %9, align 8, !tbaa !32
  %16 = getelementptr inbounds nuw %struct.Cnf_Dat_t_, ptr %15, i32 0, i32 1
  store i32 %14, ptr %16, align 8, !tbaa !56
  %17 = load i32, ptr %7, align 4, !tbaa !20
  %18 = load ptr, ptr %9, align 8, !tbaa !32
  %19 = getelementptr inbounds nuw %struct.Cnf_Dat_t_, ptr %18, i32 0, i32 3
  store i32 %17, ptr %19, align 8, !tbaa !57
  %20 = load i32, ptr %8, align 4, !tbaa !20
  %21 = load ptr, ptr %9, align 8, !tbaa !32
  %22 = getelementptr inbounds nuw %struct.Cnf_Dat_t_, ptr %21, i32 0, i32 2
  store i32 %20, ptr %22, align 4, !tbaa !58
  %23 = load i32, ptr %7, align 4, !tbaa !20
  %24 = add nsw i32 %23, 1
  %25 = sext i32 %24 to i64
  %26 = mul i64 8, %25
  %27 = call noalias ptr @malloc(i64 noundef %26) #12
  %28 = load ptr, ptr %9, align 8, !tbaa !32
  %29 = getelementptr inbounds nuw %struct.Cnf_Dat_t_, ptr %28, i32 0, i32 4
  store ptr %27, ptr %29, align 8, !tbaa !59
  %30 = load i32, ptr %8, align 4, !tbaa !20
  %31 = sext i32 %30 to i64
  %32 = mul i64 4, %31
  %33 = call noalias ptr @malloc(i64 noundef %32) #12
  %34 = load ptr, ptr %9, align 8, !tbaa !32
  %35 = getelementptr inbounds nuw %struct.Cnf_Dat_t_, ptr %34, i32 0, i32 4
  %36 = load ptr, ptr %35, align 8, !tbaa !59
  %37 = getelementptr inbounds ptr, ptr %36, i64 0
  store ptr %33, ptr %37, align 8, !tbaa !18
  %38 = load ptr, ptr %9, align 8, !tbaa !32
  %39 = getelementptr inbounds nuw %struct.Cnf_Dat_t_, ptr %38, i32 0, i32 4
  %40 = load ptr, ptr %39, align 8, !tbaa !59
  %41 = getelementptr inbounds ptr, ptr %40, i64 0
  %42 = load ptr, ptr %41, align 8, !tbaa !18
  %43 = load i32, ptr %8, align 4, !tbaa !20
  %44 = sext i32 %43 to i64
  %45 = getelementptr inbounds i32, ptr %42, i64 %44
  %46 = load ptr, ptr %9, align 8, !tbaa !32
  %47 = getelementptr inbounds nuw %struct.Cnf_Dat_t_, ptr %46, i32 0, i32 4
  %48 = load ptr, ptr %47, align 8, !tbaa !59
  %49 = load i32, ptr %7, align 4, !tbaa !20
  %50 = sext i32 %49 to i64
  %51 = getelementptr inbounds ptr, ptr %48, i64 %50
  store ptr %45, ptr %51, align 8, !tbaa !18
  %52 = load ptr, ptr %9, align 8, !tbaa !32
  %53 = getelementptr inbounds nuw %struct.Cnf_Dat_t_, ptr %52, i32 0, i32 5
  %54 = load ptr, ptr %53, align 8, !tbaa !45
  %55 = icmp ne ptr %54, null
  br i1 %55, label %56, label %68

56:                                               ; preds = %4
  %57 = load ptr, ptr %5, align 8, !tbaa !34
  %58 = call i32 @Aig_ManObjNumMax(ptr noundef %57)
  %59 = sext i32 %58 to i64
  %60 = mul i64 4, %59
  %61 = call noalias ptr @malloc(i64 noundef %60) #12
  %62 = load ptr, ptr %5, align 8, !tbaa !34
  %63 = call i32 @Aig_ManObjNumMax(ptr noundef %62)
  %64 = sext i32 %63 to i64
  %65 = mul i64 4, %64
  call void @llvm.memset.p0.i64(ptr align 1 %61, i8 -1, i64 %65, i1 false)
  %66 = load ptr, ptr %9, align 8, !tbaa !32
  %67 = getelementptr inbounds nuw %struct.Cnf_Dat_t_, ptr %66, i32 0, i32 5
  store ptr %61, ptr %67, align 8, !tbaa !45
  br label %68

68:                                               ; preds = %56, %4
  %69 = load ptr, ptr %9, align 8, !tbaa !32
  call void @llvm.lifetime.end.p0(i64 8, ptr %9) #11
  ret ptr %69
}

; Function Attrs: nounwind uwtable
define ptr @Cnf_DataDup(ptr noundef %0) #0 {
  %2 = alloca ptr, align 8
  %3 = alloca ptr, align 8
  %4 = alloca i32, align 4
  store ptr %0, ptr %2, align 8, !tbaa !32
  call void @llvm.lifetime.start.p0(i64 8, ptr %3) #11
  call void @llvm.lifetime.start.p0(i64 4, ptr %4) #11
  %5 = load ptr, ptr %2, align 8, !tbaa !32
  %6 = getelementptr inbounds nuw %struct.Cnf_Dat_t_, ptr %5, i32 0, i32 0
  %7 = load ptr, ptr %6, align 8, !tbaa !55
  %8 = load ptr, ptr %2, align 8, !tbaa !32
  %9 = getelementptr inbounds nuw %struct.Cnf_Dat_t_, ptr %8, i32 0, i32 1
  %10 = load i32, ptr %9, align 8, !tbaa !56
  %11 = load ptr, ptr %2, align 8, !tbaa !32
  %12 = getelementptr inbounds nuw %struct.Cnf_Dat_t_, ptr %11, i32 0, i32 3
  %13 = load i32, ptr %12, align 8, !tbaa !57
  %14 = load ptr, ptr %2, align 8, !tbaa !32
  %15 = getelementptr inbounds nuw %struct.Cnf_Dat_t_, ptr %14, i32 0, i32 2
  %16 = load i32, ptr %15, align 4, !tbaa !58
  %17 = call ptr @Cnf_DataAlloc(ptr noundef %7, i32 noundef %10, i32 noundef %13, i32 noundef %16)
  store ptr %17, ptr %3, align 8, !tbaa !32
  %18 = load ptr, ptr %3, align 8, !tbaa !32
  %19 = getelementptr inbounds nuw %struct.Cnf_Dat_t_, ptr %18, i32 0, i32 4
  %20 = load ptr, ptr %19, align 8, !tbaa !59
  %21 = getelementptr inbounds ptr, ptr %20, i64 0
  %22 = load ptr, ptr %21, align 8, !tbaa !18
  %23 = load ptr, ptr %2, align 8, !tbaa !32
  %24 = getelementptr inbounds nuw %struct.Cnf_Dat_t_, ptr %23, i32 0, i32 4
  %25 = load ptr, ptr %24, align 8, !tbaa !59
  %26 = getelementptr inbounds ptr, ptr %25, i64 0
  %27 = load ptr, ptr %26, align 8, !tbaa !18
  %28 = load ptr, ptr %2, align 8, !tbaa !32
  %29 = getelementptr inbounds nuw %struct.Cnf_Dat_t_, ptr %28, i32 0, i32 2
  %30 = load i32, ptr %29, align 4, !tbaa !58
  %31 = sext i32 %30 to i64
  %32 = mul i64 4, %31
  call void @llvm.memcpy.p0.p0.i64(ptr align 4 %22, ptr align 4 %27, i64 %32, i1 false)
  %33 = load ptr, ptr %2, align 8, !tbaa !32
  %34 = getelementptr inbounds nuw %struct.Cnf_Dat_t_, ptr %33, i32 0, i32 5
  %35 = load ptr, ptr %34, align 8, !tbaa !45
  %36 = icmp ne ptr %35, null
  br i1 %36, label %37, label %50

37:                                               ; preds = %1
  %38 = load ptr, ptr %3, align 8, !tbaa !32
  %39 = getelementptr inbounds nuw %struct.Cnf_Dat_t_, ptr %38, i32 0, i32 5
  %40 = load ptr, ptr %39, align 8, !tbaa !45
  %41 = load ptr, ptr %2, align 8, !tbaa !32
  %42 = getelementptr inbounds nuw %struct.Cnf_Dat_t_, ptr %41, i32 0, i32 5
  %43 = load ptr, ptr %42, align 8, !tbaa !45
  %44 = load ptr, ptr %2, align 8, !tbaa !32
  %45 = getelementptr inbounds nuw %struct.Cnf_Dat_t_, ptr %44, i32 0, i32 0
  %46 = load ptr, ptr %45, align 8, !tbaa !55
  %47 = call i32 @Aig_ManObjNumMax(ptr noundef %46)
  %48 = sext i32 %47 to i64
  %49 = mul i64 4, %48
  call void @llvm.memcpy.p0.p0.i64(ptr align 4 %40, ptr align 4 %43, i64 %49, i1 false)
  br label %50

50:                                               ; preds = %37, %1
  store i32 1, ptr %4, align 4, !tbaa !20
  br label %51

51:                                               ; preds = %86, %50
  %52 = load i32, ptr %4, align 4, !tbaa !20
  %53 = load ptr, ptr %2, align 8, !tbaa !32
  %54 = getelementptr inbounds nuw %struct.Cnf_Dat_t_, ptr %53, i32 0, i32 3
  %55 = load i32, ptr %54, align 8, !tbaa !57
  %56 = icmp slt i32 %52, %55
  br i1 %56, label %57, label %89

57:                                               ; preds = %51
  %58 = load ptr, ptr %3, align 8, !tbaa !32
  %59 = getelementptr inbounds nuw %struct.Cnf_Dat_t_, ptr %58, i32 0, i32 4
  %60 = load ptr, ptr %59, align 8, !tbaa !59
  %61 = getelementptr inbounds ptr, ptr %60, i64 0
  %62 = load ptr, ptr %61, align 8, !tbaa !18
  %63 = load ptr, ptr %2, align 8, !tbaa !32
  %64 = getelementptr inbounds nuw %struct.Cnf_Dat_t_, ptr %63, i32 0, i32 4
  %65 = load ptr, ptr %64, align 8, !tbaa !59
  %66 = load i32, ptr %4, align 4, !tbaa !20
  %67 = sext i32 %66 to i64
  %68 = getelementptr inbounds ptr, ptr %65, i64 %67
  %69 = load ptr, ptr %68, align 8, !tbaa !18
  %70 = load ptr, ptr %2, align 8, !tbaa !32
  %71 = getelementptr inbounds nuw %struct.Cnf_Dat_t_, ptr %70, i32 0, i32 4
  %72 = load ptr, ptr %71, align 8, !tbaa !59
  %73 = getelementptr inbounds ptr, ptr %72, i64 0
  %74 = load ptr, ptr %73, align 8, !tbaa !18
  %75 = ptrtoint ptr %69 to i64
  %76 = ptrtoint ptr %74 to i64
  %77 = sub i64 %75, %76
  %78 = sdiv exact i64 %77, 4
  %79 = getelementptr inbounds i32, ptr %62, i64 %78
  %80 = load ptr, ptr %3, align 8, !tbaa !32
  %81 = getelementptr inbounds nuw %struct.Cnf_Dat_t_, ptr %80, i32 0, i32 4
  %82 = load ptr, ptr %81, align 8, !tbaa !59
  %83 = load i32, ptr %4, align 4, !tbaa !20
  %84 = sext i32 %83 to i64
  %85 = getelementptr inbounds ptr, ptr %82, i64 %84
  store ptr %79, ptr %85, align 8, !tbaa !18
  br label %86

86:                                               ; preds = %57
  %87 = load i32, ptr %4, align 4, !tbaa !20
  %88 = add nsw i32 %87, 1
  store i32 %88, ptr %4, align 4, !tbaa !20
  br label %51, !llvm.loop !61

89:                                               ; preds = %51
  %90 = load ptr, ptr %3, align 8, !tbaa !32
  call void @llvm.lifetime.end.p0(i64 4, ptr %4) #11
  call void @llvm.lifetime.end.p0(i64 8, ptr %3) #11
  ret ptr %90
}