; Function Attrs: nofree nounwind uwtable
define noalias noundef ptr @Cnf_DataDup(ptr noundef readonly captures(none) %0) local_unnamed_addr #7 {
  %2 = load ptr, ptr %0, align 8, !tbaa !47
  %3 = getelementptr inbounds nuw i8, ptr %0, i64 8
  %4 = load i32, ptr %3, align 8, !tbaa !48
  %5 = getelementptr inbounds nuw i8, ptr %0, i64 16
  %6 = load i32, ptr %5, align 8, !tbaa !49
  %7 = getelementptr inbounds nuw i8, ptr %0, i64 12
  %8 = load i32, ptr %7, align 4, !tbaa !50
  %9 = tail call noalias dereferenceable_or_null(72) ptr @calloc(i64 noundef 1, i64 noundef 72) #19
  store ptr %2, ptr %9, align 8, !tbaa !47
  %10 = getelementptr inbounds nuw i8, ptr %9, i64 8
  store i32 %4, ptr %10, align 8, !tbaa !48
  %11 = getelementptr inbounds nuw i8, ptr %9, i64 16
  store i32 %6, ptr %11, align 8, !tbaa !49
  %12 = getelementptr inbounds nuw i8, ptr %9, i64 12
  store i32 %8, ptr %12, align 4, !tbaa !50
  %13 = add nsw i32 %6, 1
  %14 = sext i32 %13 to i64
  %15 = shl nsw i64 %14, 3
  %16 = tail call noalias ptr @malloc(i64 noundef %15) #17
  %17 = getelementptr inbounds nuw i8, ptr %9, i64 24
  store ptr %16, ptr %17, align 8, !tbaa !51
  %18 = sext i32 %8 to i64
  %19 = shl nsw i64 %18, 2
  %20 = tail call noalias ptr @malloc(i64 noundef %19) #17
  store ptr %20, ptr %16, align 8, !tbaa !16
  %21 = getelementptr inbounds i32, ptr %20, i64 %18
  %22 = sext i32 %6 to i64
  %23 = getelementptr inbounds ptr, ptr %16, i64 %22
  store ptr %21, ptr %23, align 8, !tbaa !16
  %24 = load ptr, ptr %16, align 8, !tbaa !16
  %25 = getelementptr inbounds nuw i8, ptr %0, i64 24
  %26 = load ptr, ptr %25, align 8, !tbaa !51
  %27 = load ptr, ptr %26, align 8, !tbaa !16
  tail call void @llvm.memcpy.p0.p0.i64(ptr align 4 %24, ptr align 4 %27, i64 %19, i1 false)
  %28 = getelementptr inbounds nuw i8, ptr %0, i64 32
  %29 = load ptr, ptr %28, align 8, !tbaa !42
  %.not = icmp eq ptr %29, null
  br i1 %.not, label %35, label %30

30:                                               ; preds = %1
  %31 = load ptr, ptr %0, align 8, !tbaa !47
  %32 = getelementptr i8, ptr %31, i64 32
  %.val = load ptr, ptr %32, align 8, !tbaa !52
  %33 = getelementptr i8, ptr %.val, i64 4
  %.val.val = load i32, ptr %33, align 4, !tbaa !38
  %34 = icmp eq i32 %.val.val, 0
  tail call void @llvm.assume(i1 %34)
  br label %35

35:                                               ; preds = %30, %1
  %36 = load i32, ptr %5, align 8, !tbaa !49
  %37 = icmp sgt i32 %36, 1
  br i1 %37, label %.lr.ph, label %._crit_edge

.lr.ph:                                           ; preds = %35
  %38 = load ptr, ptr %16, align 8, !tbaa !16
  %39 = load ptr, ptr %25, align 8, !tbaa !51
  %wide.trip.count = zext nneg i32 %36 to i64
  br label %40

40:                                               ; preds = %.lr.ph, %40
  %indvars.iv = phi i64 [ 1, %.lr.ph ], [ %indvars.iv.next, %40 ]
  %41 = getelementptr inbounds nuw ptr, ptr %39, i64 %indvars.iv
  %42 = load ptr, ptr %41, align 8, !tbaa !16
  %43 = load ptr, ptr %39, align 8, !tbaa !16
  %44 = ptrtoint ptr %42 to i64
  %45 = ptrtoint ptr %43 to i64
  %46 = sub i64 %44, %45
  %47 = getelementptr inbounds i8, ptr %38, i64 %46
  %48 = getelementptr inbounds nuw ptr, ptr %16, i64 %indvars.iv
  store ptr %47, ptr %48, align 8, !tbaa !16
  %indvars.iv.next = add nuw nsw i64 %indvars.iv, 1
  %exitcond.not = icmp eq i64 %indvars.iv.next, %wide.trip.count
  br i1 %exitcond.not, label %._crit_edge, label %40, !llvm.loop !53

._crit_edge:                                      ; preds = %40, %35
  ret ptr %9
}